target datalayout = "e-m:e-p270:32:32-p271:32:32-p272:64:64-i64:64-i128:128-f80:128-n8:16:32:64-S128"
target triple = "x86_64-pc-linux-gnu"

%struct.Map_TimeStruct_t_ = type { float, float, float }
%struct.Map_SuperStruct_t_ = type { i32, i32, [4 x i8], i32, [6 x ptr], ptr, [2 x i32], [6 x %struct.Map_TimeStruct_t_], [6 x %struct.Map_TimeStruct_t_], %struct.Map_TimeStruct_t_, float, ptr, ptr }

; Function Attrs: nounwind uwtable
define i32 @Map_SuperTableCompareGatesInList(ptr noundef %0, ptr noundef %1) #0 {
  %3 = alloca i32, align 4
  %4 = alloca ptr, align 8
  %5 = alloca ptr, align 8
  store ptr %0, ptr %4, align 8
  store ptr %1, ptr %5, align 8
  %6 = load ptr, ptr %4, align 8
  %7 = load ptr, ptr %6, align 8
  %8 = getelementptr inbounds %struct.Map_SuperStruct_t_, ptr %7, i32 0, i32 10
  %9 = load float, ptr %8, align 4
  %10 = load ptr, ptr %5, align 8
  %11 = load ptr, ptr %10, align 8
  %12 = getelementptr inbounds %struct.Map_SuperStruct_t_, ptr %11, i32 0, i32 10
  %13 = load float, ptr %12, align 4
  %14 = fcmp ogt float %9, %13
  br i1 %14, label %15, label %16

15:                                               ; preds = %2
  store i32 -1, ptr %3, align 4
  br label %28

16:                                               ; preds = %2
  %17 = load ptr, ptr %4, align 8
  %18 = load ptr, ptr %17, align 8
  %19 = getelementptr inbounds %struct.Map_SuperStruct_t_, ptr %18, i32 0, i32 10
  %20 = load float, ptr %19, align 4
  %21 = load ptr, ptr %5, align 8
  %22 = load ptr, ptr %21, align 8
  %23 = getelementptr inbounds %struct.Map_SuperStruct_t_, ptr %22, i32 0, i32 10
  %24 = load float, ptr %23, align 4
  %25 = fcmp olt float %20, %24
  br i1 %25, label %26, label %27

26:                                               ; preds = %16
  store i32 1, ptr %3, align 4
  br label %28

27:                                               ; preds = %16
  store i32 0, ptr %3, align 4
  br label %28

28:                                               ; preds = %27, %26, %15
  %29 = load i32, ptr %3, align 4
  ret i32 %29
}