; Function Attrs: mustprogress nofree norecurse nosync nounwind willreturn memory(read, inaccessiblemem: none) uwtable
define range(i32 -1, 2) i32 @Map_SuperTableCompareGatesInList(ptr noundef readonly captures(none) %0, ptr noundef readonly captures(none) %1) #9 {
  %3 = load ptr, ptr %0, align 8
  %4 = getelementptr inbounds nuw i8, ptr %3, i64 236
  %5 = load float, ptr %4, align 4
  %6 = load ptr, ptr %1, align 8
  %7 = getelementptr inbounds nuw i8, ptr %6, i64 236
  %8 = load float, ptr %7, align 4
  %9 = fcmp ogt float %5, %8
  %10 = fcmp olt float %5, %8
  %. = zext i1 %10 to i32
  %.0 = select i1 %9, i32 -1, i32 %.
  ret i32 %.0
}